target datalayout = "e-m:e-p270:32:32-p271:32:32-p272:64:64-i64:64-i128:128-f80:128-n8:16:32:64-S128"
target triple = "x86_64-pc-linux-gnu"

%"class.euf::egraph" = type { ptr, %class.svector, %"class.euf::etable", %class.region, %class.scoped_ptr_vector, %class.svector.3, %class.svector.5, %class.ptr_vector.7, ptr, ptr, i32, %class.tmp_app, %class.ptr_vector.7, %class.ref_vector, %class.ref_vector.11, %class.vector.16, %class.ptr_vector.7, i32, i8, ptr, ptr, %"class.euf::justification", i32, %class.svector.18, %class.svector.20, %class.ptr_vector.7, %"struct.euf::egraph::stats", i8, i8, i64, %"class.std::vector", %"class.std::function", %"class.std::function.22", %"class.std::function.24", %"class.std::function.26", %"class.std::function.29" }
%class.svector = type { %class.vector }
%class.vector = type { ptr }
%"class.euf::etable" = type { ptr, i8, %class.ptr_vector, %class.map }
%class.ptr_vector = type { %class.vector.0 }
%class.vector.0 = type { ptr }
%class.map = type { %class.table2map }
%class.table2map = type { %class.core_hashtable }
%class.core_hashtable = type <{ ptr, i32, i32, i32, [4 x i8] }>
%class.region = type { ptr, ptr, ptr, ptr, ptr }
%class.scoped_ptr_vector = type { %class.ptr_vector.1 }
%class.ptr_vector.1 = type { %class.vector.2 }
%class.vector.2 = type { ptr }
%class.svector.3 = type { %class.vector.4 }
%class.vector.4 = type { ptr }
%class.svector.5 = type { %class.vector.6 }
%class.vector.6 = type { ptr }
%class.tmp_app = type { i32, ptr }
%class.ref_vector = type { %class.ref_vector_core }
%class.ref_vector_core = type { %class.ref_manager_wrapper, %class.ptr_vector.9 }
%class.ref_manager_wrapper = type { ptr }
%class.ptr_vector.9 = type { %class.vector.10 }
%class.vector.10 = type { ptr }
%class.ref_vector.11 = type { %class.ref_vector_core.12 }
%class.ref_vector_core.12 = type { %class.ref_manager_wrapper.13, %class.ptr_vector.14 }
%class.ref_manager_wrapper.13 = type { ptr }
%class.ptr_vector.14 = type { %class.vector.15 }
%class.vector.15 = type { ptr }
%class.vector.16 = type { ptr }
%"class.euf::justification" = type { i32, %union.anon, %union.anon.17 }
%union.anon = type { ptr }
%union.anon.17 = type { ptr }
%class.svector.18 = type { %class.vector.19 }
%class.vector.19 = type { ptr }
%class.svector.20 = type { %class.vector.21 }
%class.vector.21 = type { ptr }
%class.ptr_vector.7 = type { %class.vector.8 }
%class.vector.8 = type { ptr }
%"struct.euf::egraph::stats" = type { i32, i32, i32, i32, i32, i32 }
%"class.std::vector" = type { %"struct.std::_Vector_base" }
%"struct.std::_Vector_base" = type { %"struct.std::_Vector_base<std::function<void (euf::enode *, euf::enode *)>, std::allocator<std::function<void (euf::enode *, euf::enode *)>>>::_Vector_impl" }
%"struct.std::_Vector_base<std::function<void (euf::enode *, euf::enode *)>, std::allocator<std::function<void (euf::enode *, euf::enode *)>>>::_Vector_impl" = type { %"struct.std::_Vector_base<std::function<void (euf::enode *, euf::enode *)>, std::allocator<std::function<void (euf::enode *, euf::enode *)>>>::_Vector_impl_data" }
%"struct.std::_Vector_base<std::function<void (euf::enode *, euf::enode *)>, std::allocator<std::function<void (euf::enode *, euf::enode *)>>>::_Vector_impl_data" = type { ptr, ptr, ptr }
%"class.std::function" = type { %"class.std::_Function_base", ptr }
%"class.std::_Function_base" = type { %"union.std::_Any_data", ptr }
%"union.std::_Any_data" = type { %"union.std::_Nocopy_types" }
%"union.std::_Nocopy_types" = type { { i64, i64 } }
%"class.std::function.22" = type { %"class.std::_Function_base", ptr }
%"class.std::function.24" = type { %"class.std::_Function_base", ptr }
%"class.std::function.26" = type { %"class.std::_Function_base", ptr }
%"class.std::function.29" = type { %"class.std::_Function_base", ptr }

; Function Attrs: mustprogress nounwind uwtable
define linkonce_odr hidden noundef i32 @_ZNK6vectorIbLb0EjE8capacityEv(ptr noundef nonnull align 8 dereferenceable(8) %0) #6 comdat align 2 {
  %2 = alloca i32, align 4
  %3 = alloca ptr, align 8
  store ptr %0, ptr %3, align 8, !tbaa !238
  %4 = load ptr, ptr %3, align 8
  %5 = getelementptr inbounds nuw %class.vector.21, ptr %4, i32 0, i32 0
  %6 = load ptr, ptr %5, align 8, !tbaa !343
  %7 = icmp eq ptr %6, null
  br i1 %7, label %8, label %9

8:                                                ; preds = %1
  store i32 0, ptr %2, align 4
  br label %14

9:                                                ; preds = %1
  %10 = getelementptr inbounds nuw %class.vector.21, ptr %4, i32 0, i32 0
  %11 = load ptr, ptr %10, align 8, !tbaa !343
  %12 = getelementptr inbounds i32, ptr %11, i64 -2
  %13 = load i32, ptr %12, align 4, !tbaa !10
  store i32 %13, ptr %2, align 4
  br label %14

14:                                               ; preds = %9, %8
  %15 = load i32, ptr %2, align 4
  ret i32 %15
}

; Function Attrs: mustprogress nounwind uwtable
define linkonce_odr hidden void @_ZN6vectorIbLb0EjE6shrinkEj(ptr noundef nonnull align 8 dereferenceable(8) %0, i32 noundef %1) #6 comdat align 2 {
  %3 = alloca ptr, align 8
  %4 = alloca i32, align 4
  store ptr %0, ptr %3, align 8, !tbaa !238
  store i32 %1, ptr %4, align 4, !tbaa !10
  %5 = load ptr, ptr %3, align 8
  %6 = getelementptr inbounds nuw %class.vector.21, ptr %5, i32 0, i32 0
  %7 = load ptr, ptr %6, align 8, !tbaa !343
  %8 = icmp ne ptr %7, null
  br i1 %8, label %9, label %14

9:                                                ; preds = %2
  %10 = load i32, ptr %4, align 4, !tbaa !10
  %11 = getelementptr inbounds nuw %class.vector.21, ptr %5, i32 0, i32 0
  %12 = load ptr, ptr %11, align 8, !tbaa !343
  %13 = getelementptr inbounds i32, ptr %12, i64 -1
  store i32 %10, ptr %13, align 4, !tbaa !10
  br label %15

14:                                               ; preds = %2
  br label %15

15:                                               ; preds = %14, %9
  ret void
}

; Function Attrs: mustprogress uwtable
define linkonce_odr hidden void @_ZN6vectorIbLb0EjE6resizeIbEEvjT_z(ptr noundef nonnull align 8 dereferenceable(8) %0, i32 noundef %1, i1 noundef zeroext %2, ...) #4 comdat align 2 {
  %4 = alloca ptr, align 8
  %5 = alloca i32, align 4
  %6 = alloca i8, align 1
  %7 = alloca i32, align 4
  %8 = alloca i32, align 4
  %9 = alloca ptr, align 8
  %10 = alloca ptr, align 8
  store ptr %0, ptr %4, align 8, !tbaa !238
  store i32 %1, ptr %5, align 4, !tbaa !10
  %11 = zext i1 %2 to i8
  store i8 %11, ptr %6, align 1, !tbaa !104
  %12 = load ptr, ptr %4, align 8
  call void @llvm.lifetime.start.p0(i64 4, ptr %7) #3
  %13 = call noundef i32 @_ZNK6vectorIbLb0EjE4sizeEv(ptr noundef nonnull align 8 dereferenceable(8) %12)
  store i32 %13, ptr %7, align 4, !tbaa !10
  %14 = load i32, ptr %5, align 4, !tbaa !10
  %15 = load i32, ptr %7, align 4, !tbaa !10
  %16 = icmp ule i32 %14, %15
  br i1 %16, label %17, label %19

17:                                               ; preds = %3
  %18 = load i32, ptr %5, align 4, !tbaa !10
  call void @_ZN6vectorIbLb0EjE6shrinkEj(ptr noundef nonnull align 8 dereferenceable(8) %12, i32 noundef %18)
  store i32 1, ptr %8, align 4
  br label %53

19:                                               ; preds = %3
  br label %20

20:                                               ; preds = %24, %19
  %21 = load i32, ptr %5, align 4, !tbaa !10
  %22 = call noundef i32 @_ZNK6vectorIbLb0EjE8capacityEv(ptr noundef nonnull align 8 dereferenceable(8) %12)
  %23 = icmp ugt i32 %21, %22
  br i1 %23, label %24, label %25

24:                                               ; preds = %20
  call void @_ZN6vectorIbLb0EjE13expand_vectorEv(ptr noundef nonnull align 8 dereferenceable(8) %12)
  br label %20, !llvm.loop !617

25:                                               ; preds = %20
  %26 = load i32, ptr %5, align 4, !tbaa !10
  %27 = getelementptr inbounds nuw %class.vector.21, ptr %12, i32 0, i32 0
  %28 = load ptr, ptr %27, align 8, !tbaa !343
  %29 = getelementptr inbounds i32, ptr %28, i64 -1
  store i32 %26, ptr %29, align 4, !tbaa !10
  call void @llvm.lifetime.start.p0(i64 8, ptr %9) #3
  %30 = getelementptr inbounds nuw %class.vector.21, ptr %12, i32 0, i32 0
  %31 = load ptr, ptr %30, align 8, !tbaa !343
  %32 = load i32, ptr %7, align 4, !tbaa !10
  %33 = zext i32 %32 to i64
  %34 = getelementptr inbounds nuw i8, ptr %31, i64 %33
  store ptr %34, ptr %9, align 8, !tbaa !181
  call void @llvm.lifetime.start.p0(i64 8, ptr %10) #3
  %35 = getelementptr inbounds nuw %class.vector.21, ptr %12, i32 0, i32 0
  %36 = load ptr, ptr %35, align 8, !tbaa !343
  %37 = load i32, ptr %5, align 4, !tbaa !10
  %38 = zext i32 %37 to i64
  %39 = getelementptr inbounds nuw i8, ptr %36, i64 %38
  store ptr %39, ptr %10, align 8, !tbaa !181
  br label %40

40:                                               ; preds = %49, %25
  %41 = load ptr, ptr %9, align 8, !tbaa !181
  %42 = load ptr, ptr %10, align 8, !tbaa !181
  %43 = icmp ne ptr %41, %42
  br i1 %43, label %44, label %52

44:                                               ; preds = %40
  %45 = load ptr, ptr %9, align 8, !tbaa !181
  %46 = load i8, ptr %6, align 1, !tbaa !104, !range !82, !noundef !83
  %47 = trunc i8 %46 to i1
  %48 = zext i1 %47 to i8
  store i8 %48, ptr %45, align 1, !tbaa !104
  br label %49

49:                                               ; preds = %44
  %50 = load ptr, ptr %9, align 8, !tbaa !181
  %51 = getelementptr inbounds nuw i8, ptr %50, i32 1
  store ptr %51, ptr %9, align 8, !tbaa !181
  br label %40, !llvm.loop !618

52:                                               ; preds = %40
  call void @llvm.lifetime.end.p0(i64 8, ptr %10) #3
  call void @llvm.lifetime.end.p0(i64 8, ptr %9) #3
  store i32 0, ptr %8, align 4
  br label %53

53:                                               ; preds = %52, %17
  call void @llvm.lifetime.end.p0(i64 4, ptr %7) #3
  %54 = load i32, ptr %8, align 4
  switch i32 %54, label %56 [
    i32 0, label %55
    i32 1, label %55
  ]

55:                                               ; preds = %53, %53
  ret void

56:                                               ; preds = %53
  unreachable
}

; Function Attrs: mustprogress nounwind uwtable
define linkonce_odr hidden noundef i32 @_ZNK6vectorIbLb0EjE4sizeEv(ptr noundef nonnull align 8 dereferenceable(8) %0) #6 comdat align 2 {
  %2 = alloca i32, align 4
  %3 = alloca ptr, align 8
  store ptr %0, ptr %3, align 8, !tbaa !238
  %4 = load ptr, ptr %3, align 8
  %5 = getelementptr inbounds nuw %class.vector.21, ptr %4, i32 0, i32 0
  %6 = load ptr, ptr %5, align 8, !tbaa !343
  %7 = icmp eq ptr %6, null
  br i1 %7, label %8, label %9

8:                                                ; preds = %1
  store i32 0, ptr %2, align 4
  br label %14

9:                                                ; preds = %1
  %10 = getelementptr inbounds nuw %class.vector.21, ptr %4, i32 0, i32 0
  %11 = load ptr, ptr %10, align 8, !tbaa !343
  %12 = getelementptr inbounds i32, ptr %11, i64 -1
  %13 = load i32, ptr %12, align 4, !tbaa !10
  store i32 %13, ptr %2, align 4
  br label %14

14:                                               ; preds = %9, %8
  %15 = load i32, ptr %2, align 4
  ret i32 %15
}

; Function Attrs: mustprogress nounwind uwtable
define linkonce_odr hidden noundef nonnull align 1 dereferenceable(1) ptr @_ZN6vectorIbLb0EjEixEj(ptr noundef nonnull align 8 dereferenceable(8) %0, i32 noundef %1) #6 comdat align 2 {
  %3 = alloca ptr, align 8
  %4 = alloca i32, align 4
  store ptr %0, ptr %3, align 8, !tbaa !238
  store i32 %1, ptr %4, align 4, !tbaa !10
  %5 = load ptr, ptr %3, align 8
  %6 = getelementptr inbounds nuw %class.vector.21, ptr %5, i32 0, i32 0
  %7 = load ptr, ptr %6, align 8, !tbaa !343
  %8 = load i32, ptr %4, align 4, !tbaa !10
  %9 = zext i32 %8 to i64
  %10 = getelementptr inbounds nuw i8, ptr %7, i64 %9
  ret ptr %10
}

; Function Attrs: mustprogress uwtable
define linkonce_odr hidden void @_ZN6vectorIbLb0EjE7reserveEjRKb(ptr noundef nonnull align 8 dereferenceable(8) %0, i32 noundef %1, ptr noundef nonnull align 1 dereferenceable(1) %2) #4 comdat align 2 {
  %4 = alloca ptr, align 8
  %5 = alloca i32, align 4
  %6 = alloca ptr, align 8
  store ptr %0, ptr %4, align 8, !tbaa !238
  store i32 %1, ptr %5, align 4, !tbaa !10
  store ptr %2, ptr %6, align 8, !tbaa !181
  %7 = load ptr, ptr %4, align 8
  %8 = load i32, ptr %5, align 4, !tbaa !10
  %9 = call noundef i32 @_ZNK6vectorIbLb0EjE4sizeEv(ptr noundef nonnull align 8 dereferenceable(8) %7)
  %10 = icmp ugt i32 %8, %9
  br i1 %10, label %11, label %16

11:                                               ; preds = %3
  %12 = load i32, ptr %5, align 4, !tbaa !10
  %13 = load ptr, ptr %6, align 8, !tbaa !181
  %14 = load i8, ptr %13, align 1, !tbaa !104, !range !82, !noundef !83
  %15 = trunc i8 %14 to i1
  call void (ptr, i32, i1, ...) @_ZN6vectorIbLb0EjE6resizeIbEEvjT_z(ptr noundef nonnull align 8 dereferenceable(8) %7, i32 noundef %12, i1 noundef zeroext %15)
  br label %16

16:                                               ; preds = %11, %3
  ret void
}

; Function Attrs: mustprogress uwtable
define hidden void @_ZN3euf6egraph24set_th_propagates_diseqsEi(ptr noundef nonnull align 8 dereferenceable(536) %0, i32 noundef %1) #4 align 2 {
  %3 = alloca ptr, align 8
  %4 = alloca i32, align 4
  %5 = alloca i8, align 1
  store ptr %0, ptr %3, align 8, !tbaa !3
  store i32 %1, ptr %4, align 4, !tbaa !10
  %6 = load ptr, ptr %3, align 8
  %7 = getelementptr inbounds nuw %"class.euf::egraph", ptr %6, i32 0, i32 24
  %8 = load i32, ptr %4, align 4, !tbaa !10
  %9 = add nsw i32 %8, 1
  call void @llvm.lifetime.start.p0(i64 1, ptr %5) #3
  store i8 0, ptr %5, align 1, !tbaa !104
  call void @_ZN6vectorIbLb0EjE7reserveEjRKb(ptr noundef nonnull align 8 dereferenceable(8) %7, i32 noundef %9, ptr noundef nonnull align 1 dereferenceable(1) %5)
  call void @llvm.lifetime.end.p0(i64 1, ptr %5) #3
  %10 = getelementptr inbounds nuw %"class.euf::egraph", ptr %6, i32 0, i32 24
  %11 = load i32, ptr %4, align 4, !tbaa !10
  %12 = call noundef nonnull align 1 dereferenceable(1) ptr @_ZN6vectorIbLb0EjEixEj(ptr noundef nonnull align 8 dereferenceable(8) %10, i32 noundef %11)
  store i8 1, ptr %12, align 1, !tbaa !104
  ret void
}