; Function Attrs: mustprogress uwtable
define hidden void @_ZN3euf6egraph24set_th_propagates_diseqsEi(ptr noundef nonnull align 8 dereferenceable(536) %0, i32 noundef %1) local_unnamed_addr #3 align 2 {
  %3 = getelementptr inbounds nuw i8, ptr %0, i64 296
  %4 = add nsw i32 %1, 1
  %5 = load ptr, ptr %3, align 8, !tbaa !162
  %6 = icmp eq ptr %5, null
  br i1 %6, label %_ZNK6vectorIbLb0EjE4sizeEv.exit.i, label %_ZNK6vectorIbLb0EjE4sizeEv.exit.thread.i

_ZNK6vectorIbLb0EjE4sizeEv.exit.i:                ; preds = %2
  %.not.i = icmp ne i32 %4, 0
  tail call void @llvm.assume(i1 %.not.i)
  br label %_ZNK6vectorIbLb0EjE4sizeEv.exit.i.i.preheader

_ZNK6vectorIbLb0EjE4sizeEv.exit.thread.i:         ; preds = %2
  %7 = getelementptr inbounds i8, ptr %5, i64 -4
  %8 = load i32, ptr %7, align 4, !tbaa !113
  %9 = icmp ugt i32 %4, %8
  br i1 %9, label %_ZNK6vectorIbLb0EjE4sizeEv.exit.i.i.preheader, label %_ZN6vectorIbLb0EjE7reserveEjRKb.exit

_ZNK6vectorIbLb0EjE4sizeEv.exit.i.i.preheader:    ; preds = %_ZNK6vectorIbLb0EjE4sizeEv.exit.i, %_ZNK6vectorIbLb0EjE4sizeEv.exit.thread.i
  %.ph = phi ptr [ %5, %_ZNK6vectorIbLb0EjE4sizeEv.exit.thread.i ], [ null, %_ZNK6vectorIbLb0EjE4sizeEv.exit.i ]
  %.0.i17.i.i.ph = phi i32 [ %8, %_ZNK6vectorIbLb0EjE4sizeEv.exit.thread.i ], [ 0, %_ZNK6vectorIbLb0EjE4sizeEv.exit.i ]
  br label %_ZNK6vectorIbLb0EjE4sizeEv.exit.i.i

_ZNK6vectorIbLb0EjE4sizeEv.exit.i.i:              ; preds = %_ZNK6vectorIbLb0EjE4sizeEv.exit.i.i.preheader, %_ZNK6vectorIbLb0EjE8capacityEv.exit.thread.i.i
  %10 = phi ptr [ %.pr.pre.i.i, %_ZNK6vectorIbLb0EjE8capacityEv.exit.thread.i.i ], [ %.ph, %_ZNK6vectorIbLb0EjE4sizeEv.exit.i.i.preheader ]
  %11 = icmp eq ptr %10, null
  br i1 %11, label %_ZNK6vectorIbLb0EjE8capacityEv.exit.thread.i.i, label %_ZNK6vectorIbLb0EjE8capacityEv.exit.i.i

_ZNK6vectorIbLb0EjE8capacityEv.exit.i.i:          ; preds = %_ZNK6vectorIbLb0EjE4sizeEv.exit.i.i
  %12 = getelementptr inbounds i8, ptr %10, i64 -8
  %13 = load i32, ptr %12, align 4, !tbaa !113
  %14 = icmp ugt i32 %4, %13
  br i1 %14, label %_ZNK6vectorIbLb0EjE8capacityEv.exit.thread.i.i, label %15

_ZNK6vectorIbLb0EjE8capacityEv.exit.thread.i.i:   ; preds = %_ZNK6vectorIbLb0EjE8capacityEv.exit.i.i, %_ZNK6vectorIbLb0EjE4sizeEv.exit.i.i
  tail call void @_ZN6vectorIbLb0EjE13expand_vectorEv(ptr noundef nonnull align 8 dereferenceable(8) %3)
  %.pr.pre.i.i = load ptr, ptr %3, align 8, !tbaa !162
  br label %_ZNK6vectorIbLb0EjE4sizeEv.exit.i.i, !llvm.loop !247

15:                                               ; preds = %_ZNK6vectorIbLb0EjE8capacityEv.exit.i.i
  %16 = getelementptr inbounds i8, ptr %10, i64 -4
  store i32 %4, ptr %16, align 4, !tbaa !113
  %.not1319.i.i = icmp eq i32 %.0.i17.i.i.ph, %4
  br i1 %.not1319.i.i, label %_ZN6vectorIbLb0EjE7reserveEjRKb.exit, label %.lr.ph.preheader.i.i

.lr.ph.preheader.i.i:                             ; preds = %15
  %17 = zext i32 %4 to i64
  %18 = zext i32 %.0.i17.i.i.ph to i64
  %19 = getelementptr i8, ptr %10, i64 %18
  %20 = sub nsw i64 %17, %18
  tail call void @llvm.memset.p0.i64(ptr align 1 %19, i8 0, i64 %20, i1 false), !tbaa !179
  br label %_ZN6vectorIbLb0EjE7reserveEjRKb.exit

_ZN6vectorIbLb0EjE7reserveEjRKb.exit:             ; preds = %_ZNK6vectorIbLb0EjE4sizeEv.exit.thread.i, %15, %.lr.ph.preheader.i.i
  %21 = phi ptr [ %5, %_ZNK6vectorIbLb0EjE4sizeEv.exit.thread.i ], [ %10, %15 ], [ %10, %.lr.ph.preheader.i.i ]
  %22 = zext i32 %1 to i64
  %23 = getelementptr inbounds nuw i8, ptr %21, i64 %22
  store i8 1, ptr %23, align 1, !tbaa !179
  ret void
}